; Function Attrs: cold mustprogress noreturn uwtable
define noalias noundef nonnull ptr @lean_llvm_double_type_in_context(i64 noundef %0, ptr noundef readnone captures(none) %1) local_unnamed_addr #1 personality ptr @__gxx_personality_v0 {
  tail call void @_ZN4lean26notify_assertion_violationEPKciS1_(ptr noundef nonnull @.str, i32 noundef 448, ptr noundef nonnull @.str.1)
  %3 = tail call ptr @__cxa_allocate_exception(i64 40) #11
  %4 = getelementptr inbounds nuw i8, ptr %3, i64 8
  %5 = getelementptr inbounds nuw i8, ptr %3, i64 24
  store ptr %5, ptr %4, align 8, !tbaa !10
  %6 = getelementptr inbounds nuw i8, ptr %3, i64 16
  store i64 0, ptr %6, align 8, !tbaa !13
  store i8 0, ptr %5, align 1, !tbaa !16
  store ptr getelementptr inbounds nuw inrange(-16, 24) (i8, ptr @_ZTVN4lean19unreachable_reachedE, i64 16), ptr %3, align 8, !tbaa !17
  tail call void @__cxa_throw(ptr nonnull %3, ptr nonnull @_ZTIN4lean19unreachable_reachedE, ptr nonnull @_ZN4lean9throwableD2Ev) #12
  unreachable
}